target datalayout = "e-m:e-p270:32:32-p271:32:32-p272:64:64-i64:64-i128:128-f80:128-n8:16:32:64-S128"
target triple = "x86_64-pc-linux-gnu"

%struct.DdNode = type { i32, i32, ptr, %union.anon, i64 }
%union.anon = type { %struct.DdChildren }
%struct.DdChildren = type { ptr, ptr }

; Function Attrs: nounwind uwtable
define i32 @Extra_bddVarIsInCube(ptr noundef %0, i32 noundef %1) #0 {
  %3 = alloca i32, align 4
  %4 = alloca ptr, align 8
  %5 = alloca i32, align 4
  %6 = alloca ptr, align 8
  %7 = alloca ptr, align 8
  %8 = alloca i32, align 4
  store ptr %0, ptr %4, align 8, !tbaa !8
  store i32 %1, ptr %5, align 4, !tbaa !37
  call void @llvm.lifetime.start.p0(i64 8, ptr %6) #10
  call void @llvm.lifetime.start.p0(i64 8, ptr %7) #10
  br label %9

9:                                                ; preds = %91, %2
  %10 = load ptr, ptr %4, align 8, !tbaa !8
  %11 = ptrtoint ptr %10 to i64
  %12 = and i64 %11, -2
  %13 = inttoptr i64 %12 to ptr
  %14 = getelementptr inbounds nuw %struct.DdNode, ptr %13, i32 0, i32 0
  %15 = load i32, ptr %14, align 8, !tbaa !42
  %16 = icmp ne i32 %15, 2147483647
  br i1 %16, label %17, label %92

17:                                               ; preds = %9
  %18 = load ptr, ptr %4, align 8, !tbaa !8
  %19 = ptrtoint ptr %18 to i64
  %20 = and i64 %19, -2
  %21 = inttoptr i64 %20 to ptr
  %22 = getelementptr inbounds nuw %struct.DdNode, ptr %21, i32 0, i32 3
  %23 = getelementptr inbounds nuw %struct.DdChildren, ptr %22, i32 0, i32 1
  %24 = load ptr, ptr %23, align 8, !tbaa !43
  %25 = ptrtoint ptr %24 to i64
  %26 = load ptr, ptr %4, align 8, !tbaa !8
  %27 = ptrtoint ptr %26 to i64
  %28 = and i64 %27, 1
  %29 = trunc i64 %28 to i32
  %30 = sext i32 %29 to i64
  %31 = xor i64 %25, %30
  %32 = inttoptr i64 %31 to ptr
  store ptr %32, ptr %6, align 8, !tbaa !8
  %33 = load ptr, ptr %4, align 8, !tbaa !8
  %34 = ptrtoint ptr %33 to i64
  %35 = and i64 %34, -2
  %36 = inttoptr i64 %35 to ptr
  %37 = getelementptr inbounds nuw %struct.DdNode, ptr %36, i32 0, i32 3
  %38 = getelementptr inbounds nuw %struct.DdChildren, ptr %37, i32 0, i32 0
  %39 = load ptr, ptr %38, align 8, !tbaa !43
  %40 = ptrtoint ptr %39 to i64
  %41 = load ptr, ptr %4, align 8, !tbaa !8
  %42 = ptrtoint ptr %41 to i64
  %43 = and i64 %42, 1
  %44 = trunc i64 %43 to i32
  %45 = sext i32 %44 to i64
  %46 = xor i64 %40, %45
  %47 = inttoptr i64 %46 to ptr
  store ptr %47, ptr %7, align 8, !tbaa !8
  %48 = load ptr, ptr %4, align 8, !tbaa !8
  %49 = ptrtoint ptr %48 to i64
  %50 = and i64 %49, -2
  %51 = inttoptr i64 %50 to ptr
  %52 = getelementptr inbounds nuw %struct.DdNode, ptr %51, i32 0, i32 0
  %53 = load i32, ptr %52, align 8, !tbaa !42
  %54 = load i32, ptr %5, align 4, !tbaa !37
  %55 = icmp eq i32 %53, %54
  br i1 %55, label %56, label %73

56:                                               ; preds = %17
  %57 = load ptr, ptr %6, align 8, !tbaa !8
  %58 = ptrtoint ptr %57 to i64
  %59 = and i64 %58, 1
  %60 = trunc i64 %59 to i32
  %61 = icmp ne i32 %60, 0
  br i1 %61, label %62, label %70

62:                                               ; preds = %56
  %63 = load ptr, ptr %6, align 8, !tbaa !8
  %64 = ptrtoint ptr %63 to i64
  %65 = and i64 %64, -2
  %66 = inttoptr i64 %65 to ptr
  %67 = getelementptr inbounds nuw %struct.DdNode, ptr %66, i32 0, i32 0
  %68 = load i32, ptr %67, align 8, !tbaa !42
  %69 = icmp eq i32 %68, 2147483647
  br label %70

70:                                               ; preds = %62, %56
  %71 = phi i1 [ false, %56 ], [ %69, %62 ]
  %72 = zext i1 %71 to i32
  store i32 %72, ptr %3, align 4
  store i32 1, ptr %8, align 4
  br label %93

73:                                               ; preds = %17
  %74 = load ptr, ptr %6, align 8, !tbaa !8
  %75 = ptrtoint ptr %74 to i64
  %76 = and i64 %75, 1
  %77 = trunc i64 %76 to i32
  %78 = icmp ne i32 %77, 0
  br i1 %78, label %79, label %89

79:                                               ; preds = %73
  %80 = load ptr, ptr %6, align 8, !tbaa !8
  %81 = ptrtoint ptr %80 to i64
  %82 = and i64 %81, -2
  %83 = inttoptr i64 %82 to ptr
  %84 = getelementptr inbounds nuw %struct.DdNode, ptr %83, i32 0, i32 0
  %85 = load i32, ptr %84, align 8, !tbaa !42
  %86 = icmp eq i32 %85, 2147483647
  br i1 %86, label %87, label %89

87:                                               ; preds = %79
  %88 = load ptr, ptr %7, align 8, !tbaa !8
  store ptr %88, ptr %4, align 8, !tbaa !8
  br label %91

89:                                               ; preds = %79, %73
  %90 = load ptr, ptr %6, align 8, !tbaa !8
  store ptr %90, ptr %4, align 8, !tbaa !8
  br label %91

91:                                               ; preds = %89, %87
  br label %9, !llvm.loop !85

92:                                               ; preds = %9
  store i32 -1, ptr %3, align 4
  store i32 1, ptr %8, align 4
  br label %93

93:                                               ; preds = %92, %70
  call void @llvm.lifetime.end.p0(i64 8, ptr %7) #10
  call void @llvm.lifetime.end.p0(i64 8, ptr %6) #10
  %94 = load i32, ptr %3, align 4
  ret i32 %94
}