; Function Attrs: nofree norecurse nosync nounwind memory(read, inaccessiblemem: none) uwtable
define range(i32 -1, 2) i32 @Extra_bddVarIsInCube(ptr noundef %0, i32 noundef %1) local_unnamed_addr #6 {
  %3 = ptrtoint ptr %0 to i64
  %4 = and i64 %3, -2
  %5 = inttoptr i64 %4 to ptr
  %6 = load i32, ptr %5, align 8, !tbaa !35
  %.not18 = icmp eq i32 %6, 2147483647
  br i1 %.not18, label %.loopexit, label %.lr.ph

.lr.ph:                                           ; preds = %2, %34
  %7 = phi i32 [ %37, %34 ], [ %6, %2 ]
  %8 = phi ptr [ %36, %34 ], [ %5, %2 ]
  %.01319 = phi i64 [ %.1.in, %34 ], [ %3, %2 ]
  %9 = getelementptr inbounds nuw i8, ptr %8, i64 16
  %10 = getelementptr inbounds nuw i8, ptr %8, i64 24
  %11 = load ptr, ptr %10, align 8, !tbaa !36
  %12 = ptrtoint ptr %11 to i64
  %13 = and i64 %.01319, 1
  %14 = xor i64 %13, %12
  %15 = load ptr, ptr %9, align 8, !tbaa !36
  %16 = ptrtoint ptr %15 to i64
  %17 = xor i64 %13, %16
  %18 = icmp eq i32 %7, %1
  %19 = and i64 %14, 1
  %.not16 = icmp eq i64 %19, 0
  br i1 %18, label %20, label %27

20:                                               ; preds = %.lr.ph
  br i1 %.not16, label %.loopexit, label %21

21:                                               ; preds = %20
  %22 = and i64 %12, -2
  %23 = inttoptr i64 %22 to ptr
  %24 = load i32, ptr %23, align 8, !tbaa !35
  %25 = icmp eq i32 %24, 2147483647
  %26 = zext i1 %25 to i32
  br label %.loopexit

27:                                               ; preds = %.lr.ph
  br i1 %.not16, label %33, label %28

28:                                               ; preds = %27
  %29 = and i64 %12, -2
  %30 = inttoptr i64 %29 to ptr
  %31 = load i32, ptr %30, align 8, !tbaa !35
  %32 = icmp eq i32 %31, 2147483647
  br i1 %32, label %34, label %33

33:                                               ; preds = %28, %27
  br label %34

34:                                               ; preds = %28, %33
  %.1.in = phi i64 [ %14, %33 ], [ %17, %28 ]
  %35 = and i64 %.1.in, -2
  %36 = inttoptr i64 %35 to ptr
  %37 = load i32, ptr %36, align 8, !tbaa !35
  %.not = icmp eq i32 %37, 2147483647
  br i1 %.not, label %.loopexit, label %.lr.ph, !llvm.loop !69

.loopexit:                                        ; preds = %34, %2, %20, %21
  %.0 = phi i32 [ 0, %20 ], [ %26, %21 ], [ -1, %2 ], [ -1, %34 ]
  ret i32 %.0
}